; Function Attrs: mustprogress nofree norecurse nosync nounwind willreturn memory(argmem: read) uwtable
define i64 @_ZNK10open_spiel3nim8NimState12UnpackActionEl(ptr noundef nonnull readonly align 8 captures(none) dereferenceable(108) %0, i64 noundef %1) local_unnamed_addr #5 align 2 {
  %3 = getelementptr inbounds nuw i8, ptr %0, i64 60
  %4 = load i32, ptr %3, align 4
  %5 = sext i32 %4 to i64
  %6 = srem i64 %1, %5
  %7 = sdiv i64 %1, %5
  %8 = shl i64 %7, 32
  %.sroa.2.0.insert.ext = add i64 %8, 4294967296
  %.sroa.0.0.insert.ext = and i64 %6, 4294967295
  %.sroa.0.0.insert.insert = or disjoint i64 %.sroa.2.0.insert.ext, %.sroa.0.0.insert.ext
  ret i64 %.sroa.0.0.insert.insert
}